target datalayout = "e-m:e-p270:32:32-p271:32:32-p272:64:64-i64:64-i128:128-f80:128-n8:16:32:64-S128"
target triple = "x86_64-pc-linux-gnu"

%struct.wtap = type { ptr, ptr, i8, i32, i32, ptr, ptr, ptr, i32, ptr, ptr, ptr, ptr, ptr, ptr, ptr, ptr, ptr, ptr, i32, i32, ptr, ptr, ptr, ptr }
%struct.usbdump_info_t = type { i16, i32, i8 }
%struct.wtap_rec = type { i32, i32, i32, %struct.nstime_t, i32, %struct.nstime_t, i8, %union.anon, ptr, i8, %struct.Buffer, %struct.Buffer }
%struct.nstime_t = type { i64, i32 }
%union.anon = type { %struct.wtap_packet_header }
%struct.wtap_packet_header = type { i32, i32, i32, i32, %union.wtap_pseudo_header }
%union.wtap_pseudo_header = type { %struct.erf_mc_phdr }
%struct.erf_mc_phdr = type { %struct.erf_phdr, [16 x %struct.erf_ehdr], %union.anon.1 }
%struct.erf_phdr = type { i64, i8, i8, i16, i16, i16 }
%struct.erf_ehdr = type { i64 }
%union.anon.1 = type { i32 }
%struct.Buffer = type { ptr, i64, i64, i64 }

; Function Attrs: null_pointer_is_valid sspstrong uwtable
define internal zeroext i1 @usbdump_read_packet(ptr noundef %0, ptr noundef %1, ptr noundef %2, ptr noundef %3, ptr noundef %4) #0 {
  %6 = alloca i1, align 1
  %7 = alloca ptr, align 8
  %8 = alloca ptr, align 8
  %9 = alloca ptr, align 8
  %10 = alloca ptr, align 8
  %11 = alloca ptr, align 8
  %12 = alloca ptr, align 8
  %13 = alloca [18 x i8], align 16
  %14 = alloca i8, align 1
  %15 = alloca i8, align 1
  %16 = alloca i32, align 4
  %17 = alloca i8, align 1
  store ptr %0, ptr %7, align 8
  store ptr %1, ptr %8, align 8
  store ptr %2, ptr %9, align 8
  store ptr %3, ptr %10, align 8
  store ptr %4, ptr %11, align 8
  call void @llvm.lifetime.start.p0(i64 8, ptr %12) #7
  %18 = load ptr, ptr %7, align 8
  %19 = getelementptr inbounds nuw %struct.wtap, ptr %18, i32 0, i32 13
  %20 = load ptr, ptr %19, align 8
  store ptr %20, ptr %12, align 8
  call void @llvm.lifetime.start.p0(i64 18, ptr %13) #7
  call void @llvm.lifetime.start.p0(i64 1, ptr %14) #7
  call void @llvm.lifetime.start.p0(i64 1, ptr %15) #7
  %21 = load ptr, ptr %8, align 8
  %22 = getelementptr inbounds [18 x i8], ptr %13, i64 0, i64 0
  %23 = load ptr, ptr %10, align 8
  %24 = load ptr, ptr %11, align 8
  %25 = call zeroext i1 @wtap_read_bytes_or_eof(ptr noundef %21, ptr noundef %22, i32 noundef 18, ptr noundef %23, ptr noundef %24)
  br i1 %25, label %27, label %26

26:                                               ; preds = %5
  store i1 false, ptr %6, align 1
  store i32 1, ptr %16, align 4
  br label %237

27:                                               ; preds = %5
  %28 = getelementptr [18 x i8], ptr %13, i64 0, i64 16
  %29 = load i8, ptr %28, align 16
  store i8 %29, ptr %14, align 1
  %30 = getelementptr [18 x i8], ptr %13, i64 0, i64 17
  %31 = load i8, ptr %30, align 1
  store i8 %31, ptr %15, align 1
  %32 = load i8, ptr %14, align 1
  %33 = zext i8 %32 to i32
  %34 = icmp sgt i32 %33, 18
  br i1 %34, label %35, label %45

35:                                               ; preds = %27
  %36 = load ptr, ptr %8, align 8
  %37 = load i8, ptr %14, align 1
  %38 = zext i8 %37 to i32
  %39 = sub i32 %38, 18
  %40 = load ptr, ptr %10, align 8
  %41 = load ptr, ptr %11, align 8
  %42 = call zeroext i1 @wtap_read_bytes_or_eof(ptr noundef %36, ptr noundef null, i32 noundef %39, ptr noundef %40, ptr noundef %41)
  br i1 %42, label %44, label %43

43:                                               ; preds = %35
  store i1 false, ptr %6, align 1
  store i32 1, ptr %16, align 4
  br label %237

44:                                               ; preds = %35
  br label %45

45:                                               ; preds = %44, %27
  %46 = load ptr, ptr %12, align 8
  %47 = getelementptr inbounds nuw %struct.usbdump_info_t, ptr %46, i32 0, i32 1
  %48 = load i32, ptr %47, align 4
  %49 = load i8, ptr %14, align 1
  %50 = zext i8 %49 to i32
  %51 = icmp ult i32 %48, %50
  br i1 %51, label %52, label %55

52:                                               ; preds = %45
  %53 = load ptr, ptr %12, align 8
  %54 = getelementptr inbounds nuw %struct.usbdump_info_t, ptr %53, i32 0, i32 2
  store i8 1, ptr %54, align 4
  br label %62

55:                                               ; preds = %45
  %56 = load i8, ptr %14, align 1
  %57 = zext i8 %56 to i32
  %58 = load ptr, ptr %12, align 8
  %59 = getelementptr inbounds nuw %struct.usbdump_info_t, ptr %58, i32 0, i32 1
  %60 = load i32, ptr %59, align 4
  %61 = sub i32 %60, %57
  store i32 %61, ptr %59, align 4
  br label %62

62:                                               ; preds = %55, %52
  %63 = load ptr, ptr %9, align 8
  %64 = getelementptr inbounds nuw %struct.wtap_rec, ptr %63, i32 0, i32 0
  store i32 0, ptr %64, align 8
  %65 = call ptr @wtap_block_create(i32 noundef 5)
  %66 = load ptr, ptr %9, align 8
  %67 = getelementptr inbounds nuw %struct.wtap_rec, ptr %66, i32 0, i32 8
  store ptr %65, ptr %67, align 8
  %68 = load ptr, ptr %9, align 8
  %69 = getelementptr inbounds nuw %struct.wtap_rec, ptr %68, i32 0, i32 1
  store i32 3, ptr %69, align 4
  %70 = getelementptr [18 x i8], ptr %13, i64 0, i64 3
  %71 = load i8, ptr %70, align 1
  %72 = zext i8 %71 to i32
  %73 = shl i32 %72, 24
  %74 = getelementptr [18 x i8], ptr %13, i64 0, i64 2
  %75 = load i8, ptr %74, align 2
  %76 = zext i8 %75 to i32
  %77 = shl i32 %76, 16
  %78 = or i32 %73, %77
  %79 = getelementptr [18 x i8], ptr %13, i64 0, i64 1
  %80 = load i8, ptr %79, align 1
  %81 = zext i8 %80 to i32
  %82 = shl i32 %81, 8
  %83 = or i32 %78, %82
  %84 = getelementptr [18 x i8], ptr %13, i64 0, i64 0
  %85 = load i8, ptr %84, align 16
  %86 = zext i8 %85 to i32
  %87 = or i32 %83, %86
  %88 = zext i32 %87 to i64
  %89 = load ptr, ptr %9, align 8
  %90 = getelementptr inbounds nuw %struct.wtap_rec, ptr %89, i32 0, i32 3
  %91 = getelementptr inbounds nuw %struct.nstime_t, ptr %90, i32 0, i32 0
  store i64 %88, ptr %91, align 8
  %92 = getelementptr [18 x i8], ptr %13, i64 0, i64 7
  %93 = load i8, ptr %92, align 1
  %94 = zext i8 %93 to i32
  %95 = shl i32 %94, 24
  %96 = getelementptr [18 x i8], ptr %13, i64 0, i64 6
  %97 = load i8, ptr %96, align 2
  %98 = zext i8 %97 to i32
  %99 = shl i32 %98, 16
  %100 = or i32 %95, %99
  %101 = getelementptr [18 x i8], ptr %13, i64 0, i64 5
  %102 = load i8, ptr %101, align 1
  %103 = zext i8 %102 to i32
  %104 = shl i32 %103, 8
  %105 = or i32 %100, %104
  %106 = getelementptr [18 x i8], ptr %13, i64 0, i64 4
  %107 = load i8, ptr %106, align 4
  %108 = zext i8 %107 to i32
  %109 = or i32 %105, %108
  %110 = mul i32 %109, 1000
  %111 = load ptr, ptr %9, align 8
  %112 = getelementptr inbounds nuw %struct.wtap_rec, ptr %111, i32 0, i32 3
  %113 = getelementptr inbounds nuw %struct.nstime_t, ptr %112, i32 0, i32 1
  store i32 %110, ptr %113, align 8
  %114 = getelementptr [18 x i8], ptr %13, i64 0, i64 11
  %115 = load i8, ptr %114, align 1
  %116 = zext i8 %115 to i32
  %117 = shl i32 %116, 24
  %118 = getelementptr [18 x i8], ptr %13, i64 0, i64 10
  %119 = load i8, ptr %118, align 2
  %120 = zext i8 %119 to i32
  %121 = shl i32 %120, 16
  %122 = or i32 %117, %121
  %123 = getelementptr [18 x i8], ptr %13, i64 0, i64 9
  %124 = load i8, ptr %123, align 1
  %125 = zext i8 %124 to i32
  %126 = shl i32 %125, 8
  %127 = or i32 %122, %126
  %128 = getelementptr [18 x i8], ptr %13, i64 0, i64 8
  %129 = load i8, ptr %128, align 8
  %130 = zext i8 %129 to i32
  %131 = or i32 %127, %130
  %132 = load ptr, ptr %9, align 8
  %133 = getelementptr inbounds nuw %struct.wtap_rec, ptr %132, i32 0, i32 7
  %134 = getelementptr inbounds nuw %struct.wtap_packet_header, ptr %133, i32 0, i32 0
  store i32 %131, ptr %134, align 8
  %135 = getelementptr [18 x i8], ptr %13, i64 0, i64 15
  %136 = load i8, ptr %135, align 1
  %137 = zext i8 %136 to i32
  %138 = shl i32 %137, 24
  %139 = getelementptr [18 x i8], ptr %13, i64 0, i64 14
  %140 = load i8, ptr %139, align 2
  %141 = zext i8 %140 to i32
  %142 = shl i32 %141, 16
  %143 = or i32 %138, %142
  %144 = getelementptr [18 x i8], ptr %13, i64 0, i64 13
  %145 = load i8, ptr %144, align 1
  %146 = zext i8 %145 to i32
  %147 = shl i32 %146, 8
  %148 = or i32 %143, %147
  %149 = getelementptr [18 x i8], ptr %13, i64 0, i64 12
  %150 = load i8, ptr %149, align 4
  %151 = zext i8 %150 to i32
  %152 = or i32 %148, %151
  %153 = load ptr, ptr %9, align 8
  %154 = getelementptr inbounds nuw %struct.wtap_rec, ptr %153, i32 0, i32 7
  %155 = getelementptr inbounds nuw %struct.wtap_packet_header, ptr %154, i32 0, i32 1
  store i32 %152, ptr %155, align 4
  %156 = load ptr, ptr %8, align 8
  %157 = load ptr, ptr %9, align 8
  %158 = getelementptr inbounds nuw %struct.wtap_rec, ptr %157, i32 0, i32 11
  %159 = load ptr, ptr %9, align 8
  %160 = getelementptr inbounds nuw %struct.wtap_rec, ptr %159, i32 0, i32 7
  %161 = getelementptr inbounds nuw %struct.wtap_packet_header, ptr %160, i32 0, i32 0
  %162 = load i32, ptr %161, align 8
  %163 = load ptr, ptr %10, align 8
  %164 = load ptr, ptr %11, align 8
  %165 = call zeroext i1 @wtap_read_bytes_buffer(ptr noundef %156, ptr noundef %158, i32 noundef %162, ptr noundef %163, ptr noundef %164)
  br i1 %165, label %167, label %166

166:                                              ; preds = %62
  store i1 false, ptr %6, align 1
  store i32 1, ptr %16, align 4
  br label %237

167:                                              ; preds = %62
  %168 = load ptr, ptr %12, align 8
  %169 = getelementptr inbounds nuw %struct.usbdump_info_t, ptr %168, i32 0, i32 1
  %170 = load i32, ptr %169, align 4
  %171 = load ptr, ptr %9, align 8
  %172 = getelementptr inbounds nuw %struct.wtap_rec, ptr %171, i32 0, i32 7
  %173 = getelementptr inbounds nuw %struct.wtap_packet_header, ptr %172, i32 0, i32 0
  %174 = load i32, ptr %173, align 8
  %175 = icmp ult i32 %170, %174
  br i1 %175, label %176, label %179

176:                                              ; preds = %167
  %177 = load ptr, ptr %12, align 8
  %178 = getelementptr inbounds nuw %struct.usbdump_info_t, ptr %177, i32 0, i32 2
  store i8 1, ptr %178, align 4
  br label %188

179:                                              ; preds = %167
  %180 = load ptr, ptr %9, align 8
  %181 = getelementptr inbounds nuw %struct.wtap_rec, ptr %180, i32 0, i32 7
  %182 = getelementptr inbounds nuw %struct.wtap_packet_header, ptr %181, i32 0, i32 0
  %183 = load i32, ptr %182, align 8
  %184 = load ptr, ptr %12, align 8
  %185 = getelementptr inbounds nuw %struct.usbdump_info_t, ptr %184, i32 0, i32 1
  %186 = load i32, ptr %185, align 4
  %187 = sub i32 %186, %183
  store i32 %187, ptr %185, align 4
  br label %188

188:                                              ; preds = %179, %176
  call void @llvm.lifetime.start.p0(i64 1, ptr %17) #7
  %189 = load i8, ptr %15, align 1
  %190 = zext i8 %189 to i32
  %191 = load i8, ptr %14, align 1
  %192 = zext i8 %191 to i32
  %193 = load ptr, ptr %9, align 8
  %194 = getelementptr inbounds nuw %struct.wtap_rec, ptr %193, i32 0, i32 7
  %195 = getelementptr inbounds nuw %struct.wtap_packet_header, ptr %194, i32 0, i32 0
  %196 = load i32, ptr %195, align 8
  %197 = add i32 %192, %196
  %198 = load i8, ptr %15, align 1
  %199 = zext i8 %198 to i32
  %200 = sub i32 %199, 1
  %201 = and i32 %197, %200
  %202 = sub i32 %190, %201
  %203 = trunc i32 %202 to i8
  store i8 %203, ptr %17, align 1
  %204 = load i8, ptr %17, align 1
  %205 = zext i8 %204 to i32
  %206 = load i8, ptr %15, align 1
  %207 = zext i8 %206 to i32
  %208 = icmp slt i32 %205, %207
  br i1 %208, label %209, label %235

209:                                              ; preds = %188
  %210 = load ptr, ptr %8, align 8
  %211 = load i8, ptr %17, align 1
  %212 = zext i8 %211 to i32
  %213 = load ptr, ptr %10, align 8
  %214 = load ptr, ptr %11, align 8
  %215 = call zeroext i1 @wtap_read_bytes(ptr noundef %210, ptr noundef null, i32 noundef %212, ptr noundef %213, ptr noundef %214)
  br i1 %215, label %217, label %216

216:                                              ; preds = %209
  store i1 false, ptr %6, align 1
  store i32 1, ptr %16, align 4
  br label %236

217:                                              ; preds = %209
  %218 = load ptr, ptr %12, align 8
  %219 = getelementptr inbounds nuw %struct.usbdump_info_t, ptr %218, i32 0, i32 1
  %220 = load i32, ptr %219, align 4
  %221 = load i8, ptr %17, align 1
  %222 = zext i8 %221 to i32
  %223 = icmp ult i32 %220, %222
  br i1 %223, label %224, label %227

224:                                              ; preds = %217
  %225 = load ptr, ptr %12, align 8
  %226 = getelementptr inbounds nuw %struct.usbdump_info_t, ptr %225, i32 0, i32 2
  store i8 1, ptr %226, align 4
  br label %234

227:                                              ; preds = %217
  %228 = load i8, ptr %17, align 1
  %229 = zext i8 %228 to i32
  %230 = load ptr, ptr %12, align 8
  %231 = getelementptr inbounds nuw %struct.usbdump_info_t, ptr %230, i32 0, i32 1
  %232 = load i32, ptr %231, align 4
  %233 = sub i32 %232, %229
  store i32 %233, ptr %231, align 4
  br label %234

234:                                              ; preds = %227, %224
  br label %235

235:                                              ; preds = %234, %188
  store i1 true, ptr %6, align 1
  store i32 1, ptr %16, align 4
  br label %236

236:                                              ; preds = %235, %216
  call void @llvm.lifetime.end.p0(i64 1, ptr %17) #7
  br label %237

237:                                              ; preds = %236, %166, %43, %26
  call void @llvm.lifetime.end.p0(i64 1, ptr %15) #7
  call void @llvm.lifetime.end.p0(i64 1, ptr %14) #7
  call void @llvm.lifetime.end.p0(i64 18, ptr %13) #7
  call void @llvm.lifetime.end.p0(i64 8, ptr %12) #7
  %238 = load i1, ptr %6, align 1
  ret i1 %238
}