; Function Attrs: null_pointer_is_valid sspstrong uwtable
define internal fastcc noundef zeroext i1 @usbdump_read_packet(ptr captures(none) %.96.val, ptr noundef %0, ptr noundef %1, ptr noundef %2, ptr noundef %3) unnamed_addr #0 {
  %5 = alloca [18 x i8], align 16
  call void @llvm.lifetime.start.p0(i64 18, ptr nonnull %5) #6
  %6 = call zeroext i1 @wtap_read_bytes_or_eof(ptr noundef %0, ptr noundef nonnull %5, i32 noundef 18, ptr noundef %2, ptr noundef %3)
  br i1 %6, label %7, label %82

7:                                                ; preds = %4
  %8 = getelementptr inbounds nuw i8, ptr %5, i64 16
  %9 = load i8, ptr %8, align 16
  %10 = getelementptr inbounds nuw i8, ptr %5, i64 17
  %11 = load i8, ptr %10, align 1
  %12 = zext i8 %9 to i32
  %13 = icmp ugt i8 %9, 18
  br i1 %13, label %14, label %17

14:                                               ; preds = %7
  %15 = add nsw i32 %12, -18
  %16 = call zeroext i1 @wtap_read_bytes_or_eof(ptr noundef %0, ptr noundef null, i32 noundef %15, ptr noundef %2, ptr noundef %3)
  br i1 %16, label %17, label %82

17:                                               ; preds = %14, %7
  %18 = getelementptr inbounds nuw i8, ptr %.96.val, i64 4
  %19 = load i32, ptr %18, align 4
  %20 = icmp ult i32 %19, %12
  br i1 %20, label %21, label %23

21:                                               ; preds = %17
  %22 = getelementptr inbounds nuw i8, ptr %.96.val, i64 8
  store i8 1, ptr %22, align 4
  br label %25

23:                                               ; preds = %17
  %24 = sub nuw i32 %19, %12
  store i32 %24, ptr %18, align 4
  br label %25

25:                                               ; preds = %23, %21
  store i32 0, ptr %1, align 8
  %26 = call ptr @wtap_block_create(i32 noundef 5)
  %27 = getelementptr inbounds nuw i8, ptr %1, i64 232
  store ptr %26, ptr %27, align 8
  %28 = getelementptr inbounds nuw i8, ptr %1, i64 4
  store i32 3, ptr %28, align 4
  %29 = load i32, ptr %5, align 16
  %30 = zext i32 %29 to i64
  %31 = getelementptr inbounds nuw i8, ptr %1, i64 16
  store i64 %30, ptr %31, align 8
  %32 = getelementptr inbounds nuw i8, ptr %5, i64 4
  %33 = load i32, ptr %32, align 4
  %34 = mul i32 %33, 1000
  %35 = getelementptr inbounds nuw i8, ptr %1, i64 24
  store i32 %34, ptr %35, align 8
  %36 = getelementptr inbounds nuw i8, ptr %5, i64 10
  %37 = load i16, ptr %36, align 2
  %38 = zext i16 %37 to i32
  %39 = shl nuw i32 %38, 16
  %40 = getelementptr inbounds nuw i8, ptr %5, i64 9
  %41 = load i8, ptr %40, align 1
  %42 = zext i8 %41 to i32
  %43 = shl nuw nsw i32 %42, 8
  %44 = or disjoint i32 %43, %39
  %45 = getelementptr inbounds nuw i8, ptr %5, i64 8
  %46 = load i8, ptr %45, align 8
  %47 = zext i8 %46 to i32
  %48 = or disjoint i32 %44, %47
  %49 = getelementptr inbounds nuw i8, ptr %1, i64 64
  store i32 %48, ptr %49, align 8
  %50 = getelementptr inbounds nuw i8, ptr %5, i64 12
  %51 = load i32, ptr %50, align 4
  %52 = getelementptr inbounds nuw i8, ptr %1, i64 68
  store i32 %51, ptr %52, align 4
  %53 = getelementptr inbounds nuw i8, ptr %1, i64 280
  %54 = call zeroext i1 @wtap_read_bytes_buffer(ptr noundef %0, ptr noundef nonnull %53, i32 noundef %48, ptr noundef %2, ptr noundef %3)
  br i1 %54, label %55, label %82

55:                                               ; preds = %25
  %56 = load i32, ptr %18, align 4
  %57 = load i32, ptr %49, align 8
  %58 = icmp ult i32 %56, %57
  br i1 %58, label %59, label %61

59:                                               ; preds = %55
  %60 = getelementptr inbounds nuw i8, ptr %.96.val, i64 8
  store i8 1, ptr %60, align 4
  br label %63

61:                                               ; preds = %55
  %62 = sub nuw i32 %56, %57
  store i32 %62, ptr %18, align 4
  br label %63

63:                                               ; preds = %61, %59
  %64 = zext i8 %11 to i32
  %65 = load i32, ptr %49, align 8
  %66 = add i32 %65, %12
  %67 = add nuw nsw i32 %64, 255
  %68 = and i32 %66, %67
  %69 = trunc i32 %68 to i8
  %70 = sub i8 %11, %69
  %71 = zext i8 %70 to i32
  %72 = icmp ult i8 %70, %11
  br i1 %72, label %73, label %82

73:                                               ; preds = %63
  %74 = call zeroext i1 @wtap_read_bytes(ptr noundef %0, ptr noundef null, i32 noundef %71, ptr noundef %2, ptr noundef %3)
  br i1 %74, label %75, label %82

75:                                               ; preds = %73
  %76 = load i32, ptr %18, align 4
  %77 = icmp ult i32 %76, %71
  br i1 %77, label %78, label %80

78:                                               ; preds = %75
  %79 = getelementptr inbounds nuw i8, ptr %.96.val, i64 8
  store i8 1, ptr %79, align 4
  br label %82

80:                                               ; preds = %75
  %81 = sub nuw i32 %76, %71
  store i32 %81, ptr %18, align 4
  br label %82

82:                                               ; preds = %73, %78, %80, %63, %25, %14, %4
  %.0 = phi i1 [ false, %4 ], [ false, %14 ], [ false, %25 ], [ false, %73 ], [ true, %78 ], [ true, %80 ], [ true, %63 ]
  call void @llvm.lifetime.end.p0(i64 18, ptr nonnull %5) #6
  ret i1 %.0
}